target datalayout = "e-m:e-p270:32:32-p271:32:32-p272:64:64-i64:64-i128:128-f80:128-n8:16:32:64-S128"
target triple = "x86_64-pc-linux-gnu"

%struct.gz_state = type { %struct.gzFile_s, i32, i32, ptr, i32, i32, ptr, ptr, i32, i32, i64, i32, i32, i32, i32, i32, i64, i32, i32, ptr, %struct.z_stream_s }
%struct.gzFile_s = type { i32, ptr, i64 }
%struct.z_stream_s = type { ptr, i32, i64, ptr, i32, i64, ptr, ptr, ptr, ptr, ptr, i32, i64, i64 }

; Function Attrs: nounwind uwtable
define i32 @gzgetc(ptr noundef %0) #0 {
  %2 = alloca i32, align 4
  %3 = alloca ptr, align 8
  %4 = alloca [1 x i8], align 1
  %5 = alloca ptr, align 8
  %6 = alloca i32, align 4
  store ptr %0, ptr %3, align 8, !tbaa !3
  call void @llvm.lifetime.start.p0(i64 1, ptr %4) #8
  call void @llvm.lifetime.start.p0(i64 8, ptr %5) #8
  %7 = load ptr, ptr %3, align 8, !tbaa !3
  %8 = icmp eq ptr %7, null
  br i1 %8, label %9, label %10

9:                                                ; preds = %1
  store i32 -1, ptr %2, align 4
  store i32 1, ptr %6, align 4
  br label %63

10:                                               ; preds = %1
  %11 = load ptr, ptr %3, align 8, !tbaa !3
  store ptr %11, ptr %5, align 8, !tbaa !8
  %12 = load ptr, ptr %5, align 8, !tbaa !8
  %13 = getelementptr inbounds nuw %struct.gz_state, ptr %12, i32 0, i32 1
  %14 = load i32, ptr %13, align 8, !tbaa !11
  %15 = icmp ne i32 %14, 7247
  br i1 %15, label %26, label %16

16:                                               ; preds = %10
  %17 = load ptr, ptr %5, align 8, !tbaa !8
  %18 = getelementptr inbounds nuw %struct.gz_state, ptr %17, i32 0, i32 18
  %19 = load i32, ptr %18, align 4, !tbaa !18
  %20 = icmp ne i32 %19, 0
  br i1 %20, label %21, label %27

21:                                               ; preds = %16
  %22 = load ptr, ptr %5, align 8, !tbaa !8
  %23 = getelementptr inbounds nuw %struct.gz_state, ptr %22, i32 0, i32 18
  %24 = load i32, ptr %23, align 4, !tbaa !18
  %25 = icmp ne i32 %24, -5
  br i1 %25, label %26, label %27

26:                                               ; preds = %21, %10
  store i32 -1, ptr %2, align 4
  store i32 1, ptr %6, align 4
  br label %63

27:                                               ; preds = %21, %16
  %28 = load ptr, ptr %5, align 8, !tbaa !8
  %29 = getelementptr inbounds nuw %struct.gz_state, ptr %28, i32 0, i32 0
  %30 = getelementptr inbounds nuw %struct.gzFile_s, ptr %29, i32 0, i32 0
  %31 = load i32, ptr %30, align 8, !tbaa !22
  %32 = icmp ne i32 %31, 0
  br i1 %32, label %33, label %51

33:                                               ; preds = %27
  %34 = load ptr, ptr %5, align 8, !tbaa !8
  %35 = getelementptr inbounds nuw %struct.gz_state, ptr %34, i32 0, i32 0
  %36 = getelementptr inbounds nuw %struct.gzFile_s, ptr %35, i32 0, i32 0
  %37 = load i32, ptr %36, align 8, !tbaa !22
  %38 = add i32 %37, -1
  store i32 %38, ptr %36, align 8, !tbaa !22
  %39 = load ptr, ptr %5, align 8, !tbaa !8
  %40 = getelementptr inbounds nuw %struct.gz_state, ptr %39, i32 0, i32 0
  %41 = getelementptr inbounds nuw %struct.gzFile_s, ptr %40, i32 0, i32 2
  %42 = load i64, ptr %41, align 8, !tbaa !31
  %43 = add nsw i64 %42, 1
  store i64 %43, ptr %41, align 8, !tbaa !31
  %44 = load ptr, ptr %5, align 8, !tbaa !8
  %45 = getelementptr inbounds nuw %struct.gz_state, ptr %44, i32 0, i32 0
  %46 = getelementptr inbounds nuw %struct.gzFile_s, ptr %45, i32 0, i32 1
  %47 = load ptr, ptr %46, align 8, !tbaa !23
  %48 = getelementptr inbounds nuw i8, ptr %47, i32 1
  store ptr %48, ptr %46, align 8, !tbaa !23
  %49 = load i8, ptr %47, align 1, !tbaa !34
  %50 = zext i8 %49 to i32
  store i32 %50, ptr %2, align 4
  store i32 1, ptr %6, align 4
  br label %63

51:                                               ; preds = %27
  %52 = load ptr, ptr %5, align 8, !tbaa !8
  %53 = getelementptr inbounds [1 x i8], ptr %4, i64 0, i64 0
  %54 = call i64 @gz_read(ptr noundef %52, ptr noundef %53, i64 noundef 1)
  %55 = icmp ult i64 %54, 1
  br i1 %55, label %56, label %57

56:                                               ; preds = %51
  br label %61

57:                                               ; preds = %51
  %58 = getelementptr inbounds [1 x i8], ptr %4, i64 0, i64 0
  %59 = load i8, ptr %58, align 1, !tbaa !34
  %60 = zext i8 %59 to i32
  br label %61

61:                                               ; preds = %57, %56
  %62 = phi i32 [ -1, %56 ], [ %60, %57 ]
  store i32 %62, ptr %2, align 4
  store i32 1, ptr %6, align 4
  br label %63

63:                                               ; preds = %61, %33, %26, %9
  call void @llvm.lifetime.end.p0(i64 8, ptr %5) #8
  call void @llvm.lifetime.end.p0(i64 1, ptr %4) #8
  %64 = load i32, ptr %2, align 4
  ret i32 %64
}